target datalayout = "e-m:e-p270:32:32-p271:32:32-p272:64:64-i64:64-i128:128-f80:128-n8:16:32:64-S128"
target triple = "x86_64-pc-linux-gnu"

; Function Attrs: nounwind uwtable
define float @stb_perlin_turbulence_noise3(float noundef %0, float noundef %1, float noundef %2, float noundef %3, float noundef %4, i32 noundef %5) #0 {
  %7 = alloca float, align 4
  %8 = alloca float, align 4
  %9 = alloca float, align 4
  %10 = alloca float, align 4
  %11 = alloca float, align 4
  %12 = alloca i32, align 4
  %13 = alloca i32, align 4
  %14 = alloca float, align 4
  %15 = alloca float, align 4
  %16 = alloca float, align 4
  %17 = alloca float, align 4
  store float %0, ptr %7, align 4, !tbaa !3
  store float %1, ptr %8, align 4, !tbaa !3
  store float %2, ptr %9, align 4, !tbaa !3
  store float %3, ptr %10, align 4, !tbaa !3
  store float %4, ptr %11, align 4, !tbaa !3
  store i32 %5, ptr %12, align 4, !tbaa !7
  call void @llvm.lifetime.start.p0(i64 4, ptr %13) #4
  call void @llvm.lifetime.start.p0(i64 4, ptr %14) #4
  store float 1.000000e+00, ptr %14, align 4, !tbaa !3
  call void @llvm.lifetime.start.p0(i64 4, ptr %15) #4
  store float 1.000000e+00, ptr %15, align 4, !tbaa !3
  call void @llvm.lifetime.start.p0(i64 4, ptr %16) #4
  store float 0.000000e+00, ptr %16, align 4, !tbaa !3
  store i32 0, ptr %13, align 4, !tbaa !7
  br label %18

18:                                               ; preds = %49, %6
  %19 = load i32, ptr %13, align 4, !tbaa !7
  %20 = load i32, ptr %12, align 4, !tbaa !7
  %21 = icmp slt i32 %19, %20
  br i1 %21, label %22, label %52

22:                                               ; preds = %18
  call void @llvm.lifetime.start.p0(i64 4, ptr %17) #4
  %23 = load float, ptr %7, align 4, !tbaa !3
  %24 = load float, ptr %14, align 4, !tbaa !3
  %25 = fmul float %23, %24
  %26 = load float, ptr %8, align 4, !tbaa !3
  %27 = load float, ptr %14, align 4, !tbaa !3
  %28 = fmul float %26, %27
  %29 = load float, ptr %9, align 4, !tbaa !3
  %30 = load float, ptr %14, align 4, !tbaa !3
  %31 = fmul float %29, %30
  %32 = load i32, ptr %13, align 4, !tbaa !7
  %33 = trunc i32 %32 to i8
  %34 = call float @stb_perlin_noise3_internal(float noundef %25, float noundef %28, float noundef %31, i32 noundef 0, i32 noundef 0, i32 noundef 0, i8 noundef zeroext %33)
  %35 = load float, ptr %15, align 4, !tbaa !3
  %36 = fmul float %34, %35
  store float %36, ptr %17, align 4, !tbaa !3
  %37 = load float, ptr %17, align 4, !tbaa !3
  %38 = fpext float %37 to double
  %39 = call double @llvm.fabs.f64(double %38)
  %40 = fptrunc double %39 to float
  %41 = load float, ptr %16, align 4, !tbaa !3
  %42 = fadd float %41, %40
  store float %42, ptr %16, align 4, !tbaa !3
  %43 = load float, ptr %10, align 4, !tbaa !3
  %44 = load float, ptr %14, align 4, !tbaa !3
  %45 = fmul float %44, %43
  store float %45, ptr %14, align 4, !tbaa !3
  %46 = load float, ptr %11, align 4, !tbaa !3
  %47 = load float, ptr %15, align 4, !tbaa !3
  %48 = fmul float %47, %46
  store float %48, ptr %15, align 4, !tbaa !3
  call void @llvm.lifetime.end.p0(i64 4, ptr %17) #4
  br label %49

49:                                               ; preds = %22
  %50 = load i32, ptr %13, align 4, !tbaa !7
  %51 = add nsw i32 %50, 1
  store i32 %51, ptr %13, align 4, !tbaa !7
  br label %18, !llvm.loop !16

52:                                               ; preds = %18
  %53 = load float, ptr %16, align 4, !tbaa !3
  call void @llvm.lifetime.end.p0(i64 4, ptr %16) #4
  call void @llvm.lifetime.end.p0(i64 4, ptr %15) #4
  call void @llvm.lifetime.end.p0(i64 4, ptr %14) #4
  call void @llvm.lifetime.end.p0(i64 4, ptr %13) #4
  ret float %53
}