; Function Attrs: nofree norecurse nosync nounwind memory(read, inaccessiblemem: none) uwtable
define float @stb_perlin_turbulence_noise3(float noundef %0, float noundef %1, float noundef %2, float noundef %3, float noundef %4, i32 noundef %5) local_unnamed_addr #4 {
  %7 = icmp sgt i32 %5, 0
  br i1 %7, label %.lr.ph, label %._crit_edge

.lr.ph:                                           ; preds = %6, %.lr.ph
  %.023 = phi i32 [ %18, %.lr.ph ], [ 0, %6 ]
  %.01722 = phi float [ %15, %.lr.ph ], [ 0.000000e+00, %6 ]
  %.01821 = phi float [ %17, %.lr.ph ], [ 1.000000e+00, %6 ]
  %.01920 = phi float [ %16, %.lr.ph ], [ 1.000000e+00, %6 ]
  %8 = fmul float %0, %.01920
  %9 = fmul float %1, %.01920
  %10 = fmul float %2, %.01920
  %11 = trunc i32 %.023 to i8
  %12 = tail call float @stb_perlin_noise3_internal(float noundef %8, float noundef %9, float noundef %10, i32 noundef 0, i32 noundef 0, i32 noundef 0, i8 noundef zeroext %11)
  %13 = fmul float %.01821, %12
  %14 = tail call float @llvm.fabs.f32(float %13)
  %15 = fadd float %.01722, %14
  %16 = fmul float %3, %.01920
  %17 = fmul float %4, %.01821
  %18 = add nuw nsw i32 %.023, 1
  %exitcond.not = icmp eq i32 %18, %5
  br i1 %exitcond.not, label %._crit_edge, label %.lr.ph, !llvm.loop !11

._crit_edge:                                      ; preds = %.lr.ph, %6
  %.017.lcssa = phi float [ 0.000000e+00, %6 ], [ %15, %.lr.ph ]
  ret float %.017.lcssa
}